; Function Attrs: mustprogress nounwind uwtable
define void @_ZN5boost4urls3url10deallocateEPc(ptr nocapture noundef nonnull readnone align 8 dereferenceable(216) %0, ptr noundef %1) local_unnamed_addr #1 align 2 {
  %3 = icmp eq ptr %1, null
  br i1 %3, label %5, label %4

4:                                                ; preds = %2
  tail call void @_ZdaPv(ptr noundef nonnull %1) #21
  br label %5

5:                                                ; preds = %4, %2
  ret void
}